target datalayout = "e-m:e-p270:32:32-p271:32:32-p272:64:64-i64:64-i128:128-f80:128-n8:16:32:64-S128"
target triple = "x86_64-pc-linux-gnu"

; Function Attrs: mustprogress nounwind uwtable
define internal void @_ZN2cvL10minMaxIdx_IaiEEvPKT_PKhPT0_S7_PmS8_im(ptr noundef %0, ptr noundef %1, ptr noundef %2, ptr noundef %3, ptr noundef %4, ptr noundef %5, i32 noundef %6, i64 noundef %7) #4 {
  %9 = alloca ptr, align 8
  %10 = alloca ptr, align 8
  %11 = alloca ptr, align 8
  %12 = alloca ptr, align 8
  %13 = alloca ptr, align 8
  %14 = alloca ptr, align 8
  %15 = alloca i32, align 4
  %16 = alloca i64, align 8
  %17 = alloca i32, align 4
  %18 = alloca i32, align 4
  %19 = alloca i64, align 8
  %20 = alloca i64, align 8
  %21 = alloca i32, align 4
  %22 = alloca i8, align 1
  %23 = alloca i32, align 4
  %24 = alloca i8, align 1
  store ptr %0, ptr %9, align 8, !tbaa !40
  store ptr %1, ptr %10, align 8, !tbaa !40
  store ptr %2, ptr %11, align 8, !tbaa !10
  store ptr %3, ptr %12, align 8, !tbaa !10
  store ptr %4, ptr %13, align 8, !tbaa !76
  store ptr %5, ptr %14, align 8, !tbaa !76
  store i32 %6, ptr %15, align 4, !tbaa !12
  store i64 %7, ptr %16, align 8, !tbaa !28
  call void @llvm.lifetime.start.p0(i64 4, ptr %17) #15
  %25 = load ptr, ptr %11, align 8, !tbaa !10
  %26 = load i32, ptr %25, align 4, !tbaa !12
  store i32 %26, ptr %17, align 4, !tbaa !12
  call void @llvm.lifetime.start.p0(i64 4, ptr %18) #15
  %27 = load ptr, ptr %12, align 8, !tbaa !10
  %28 = load i32, ptr %27, align 4, !tbaa !12
  store i32 %28, ptr %18, align 4, !tbaa !12
  call void @llvm.lifetime.start.p0(i64 8, ptr %19) #15
  %29 = load ptr, ptr %13, align 8, !tbaa !76
  %30 = load i64, ptr %29, align 8, !tbaa !28
  store i64 %30, ptr %19, align 8, !tbaa !28
  call void @llvm.lifetime.start.p0(i64 8, ptr %20) #15
  %31 = load ptr, ptr %14, align 8, !tbaa !76
  %32 = load i64, ptr %31, align 8, !tbaa !28
  store i64 %32, ptr %20, align 8, !tbaa !28
  %33 = load ptr, ptr %10, align 8, !tbaa !40
  %34 = icmp ne ptr %33, null
  br i1 %34, label %75, label %35

35:                                               ; preds = %8
  call void @llvm.lifetime.start.p0(i64 4, ptr %21) #15
  store i32 0, ptr %21, align 4, !tbaa !12
  br label %36

36:                                               ; preds = %71, %35
  %37 = load i32, ptr %21, align 4, !tbaa !12
  %38 = load i32, ptr %15, align 4, !tbaa !12
  %39 = icmp slt i32 %37, %38
  br i1 %39, label %41, label %40

40:                                               ; preds = %36
  call void @llvm.lifetime.end.p0(i64 4, ptr %21) #15
  br label %74

41:                                               ; preds = %36
  call void @llvm.lifetime.start.p0(i64 1, ptr %22) #15
  %42 = load ptr, ptr %9, align 8, !tbaa !40
  %43 = load i32, ptr %21, align 4, !tbaa !12
  %44 = sext i32 %43 to i64
  %45 = getelementptr inbounds i8, ptr %42, i64 %44
  %46 = load i8, ptr %45, align 1, !tbaa !81
  store i8 %46, ptr %22, align 1, !tbaa !81
  %47 = load i8, ptr %22, align 1, !tbaa !81
  %48 = sext i8 %47 to i32
  %49 = load i32, ptr %17, align 4, !tbaa !12
  %50 = icmp slt i32 %48, %49
  br i1 %50, label %51, label %58

51:                                               ; preds = %41
  %52 = load i8, ptr %22, align 1, !tbaa !81
  %53 = sext i8 %52 to i32
  store i32 %53, ptr %17, align 4, !tbaa !12
  %54 = load i64, ptr %16, align 8, !tbaa !28
  %55 = load i32, ptr %21, align 4, !tbaa !12
  %56 = sext i32 %55 to i64
  %57 = add i64 %54, %56
  store i64 %57, ptr %19, align 8, !tbaa !28
  br label %58

58:                                               ; preds = %51, %41
  %59 = load i8, ptr %22, align 1, !tbaa !81
  %60 = sext i8 %59 to i32
  %61 = load i32, ptr %18, align 4, !tbaa !12
  %62 = icmp sgt i32 %60, %61
  br i1 %62, label %63, label %70

63:                                               ; preds = %58
  %64 = load i8, ptr %22, align 1, !tbaa !81
  %65 = sext i8 %64 to i32
  store i32 %65, ptr %18, align 4, !tbaa !12
  %66 = load i64, ptr %16, align 8, !tbaa !28
  %67 = load i32, ptr %21, align 4, !tbaa !12
  %68 = sext i32 %67 to i64
  %69 = add i64 %66, %68
  store i64 %69, ptr %20, align 8, !tbaa !28
  br label %70

70:                                               ; preds = %63, %58
  call void @llvm.lifetime.end.p0(i64 1, ptr %22) #15
  br label %71

71:                                               ; preds = %70
  %72 = load i32, ptr %21, align 4, !tbaa !12
  %73 = add nsw i32 %72, 1
  store i32 %73, ptr %21, align 4, !tbaa !12
  br label %36, !llvm.loop !84

74:                                               ; preds = %40
  br label %129

75:                                               ; preds = %8
  call void @llvm.lifetime.start.p0(i64 4, ptr %23) #15
  store i32 0, ptr %23, align 4, !tbaa !12
  br label %76

76:                                               ; preds = %125, %75
  %77 = load i32, ptr %23, align 4, !tbaa !12
  %78 = load i32, ptr %15, align 4, !tbaa !12
  %79 = icmp slt i32 %77, %78
  br i1 %79, label %81, label %80

80:                                               ; preds = %76
  call void @llvm.lifetime.end.p0(i64 4, ptr %23) #15
  br label %128

81:                                               ; preds = %76
  call void @llvm.lifetime.start.p0(i64 1, ptr %24) #15
  %82 = load ptr, ptr %9, align 8, !tbaa !40
  %83 = load i32, ptr %23, align 4, !tbaa !12
  %84 = sext i32 %83 to i64
  %85 = getelementptr inbounds i8, ptr %82, i64 %84
  %86 = load i8, ptr %85, align 1, !tbaa !81
  store i8 %86, ptr %24, align 1, !tbaa !81
  %87 = load ptr, ptr %10, align 8, !tbaa !40
  %88 = load i32, ptr %23, align 4, !tbaa !12
  %89 = sext i32 %88 to i64
  %90 = getelementptr inbounds i8, ptr %87, i64 %89
  %91 = load i8, ptr %90, align 1, !tbaa !81
  %92 = icmp ne i8 %91, 0
  br i1 %92, label %93, label %105

93:                                               ; preds = %81
  %94 = load i8, ptr %24, align 1, !tbaa !81
  %95 = sext i8 %94 to i32
  %96 = load i32, ptr %17, align 4, !tbaa !12
  %97 = icmp slt i32 %95, %96
  br i1 %97, label %98, label %105

98:                                               ; preds = %93
  %99 = load i8, ptr %24, align 1, !tbaa !81
  %100 = sext i8 %99 to i32
  store i32 %100, ptr %17, align 4, !tbaa !12
  %101 = load i64, ptr %16, align 8, !tbaa !28
  %102 = load i32, ptr %23, align 4, !tbaa !12
  %103 = sext i32 %102 to i64
  %104 = add i64 %101, %103
  store i64 %104, ptr %19, align 8, !tbaa !28
  br label %105

105:                                              ; preds = %98, %93, %81
  %106 = load ptr, ptr %10, align 8, !tbaa !40
  %107 = load i32, ptr %23, align 4, !tbaa !12
  %108 = sext i32 %107 to i64
  %109 = getelementptr inbounds i8, ptr %106, i64 %108
  %110 = load i8, ptr %109, align 1, !tbaa !81
  %111 = icmp ne i8 %110, 0
  br i1 %111, label %112, label %124

112:                                              ; preds = %105
  %113 = load i8, ptr %24, align 1, !tbaa !81
  %114 = sext i8 %113 to i32
  %115 = load i32, ptr %18, align 4, !tbaa !12
  %116 = icmp sgt i32 %114, %115
  br i1 %116, label %117, label %124

117:                                              ; preds = %112
  %118 = load i8, ptr %24, align 1, !tbaa !81
  %119 = sext i8 %118 to i32
  store i32 %119, ptr %18, align 4, !tbaa !12
  %120 = load i64, ptr %16, align 8, !tbaa !28
  %121 = load i32, ptr %23, align 4, !tbaa !12
  %122 = sext i32 %121 to i64
  %123 = add i64 %120, %122
  store i64 %123, ptr %20, align 8, !tbaa !28
  br label %124

124:                                              ; preds = %117, %112, %105
  call void @llvm.lifetime.end.p0(i64 1, ptr %24) #15
  br label %125

125:                                              ; preds = %124
  %126 = load i32, ptr %23, align 4, !tbaa !12
  %127 = add nsw i32 %126, 1
  store i32 %127, ptr %23, align 4, !tbaa !12
  br label %76, !llvm.loop !85

128:                                              ; preds = %80
  br label %129

129:                                              ; preds = %128, %74
  %130 = load i64, ptr %19, align 8, !tbaa !28
  %131 = load ptr, ptr %13, align 8, !tbaa !76
  store i64 %130, ptr %131, align 8, !tbaa !28
  %132 = load i64, ptr %20, align 8, !tbaa !28
  %133 = load ptr, ptr %14, align 8, !tbaa !76
  store i64 %132, ptr %133, align 8, !tbaa !28
  %134 = load i32, ptr %17, align 4, !tbaa !12
  %135 = load ptr, ptr %11, align 8, !tbaa !10
  store i32 %134, ptr %135, align 4, !tbaa !12
  %136 = load i32, ptr %18, align 4, !tbaa !12
  %137 = load ptr, ptr %12, align 8, !tbaa !10
  store i32 %136, ptr %137, align 4, !tbaa !12
  call void @llvm.lifetime.end.p0(i64 8, ptr %20) #15
  call void @llvm.lifetime.end.p0(i64 8, ptr %19) #15
  call void @llvm.lifetime.end.p0(i64 4, ptr %18) #15
  call void @llvm.lifetime.end.p0(i64 4, ptr %17) #15
  ret void
}

; Function Attrs: mustprogress uwtable
define internal void @_ZN2cvL12minMaxIdx_8sEPKaPKhPiS4_PmS5_im(ptr noundef %0, ptr noundef %1, ptr noundef %2, ptr noundef %3, ptr noundef %4, ptr noundef %5, i32 noundef %6, i64 noundef %7) #0 {
  %9 = alloca ptr, align 8
  %10 = alloca ptr, align 8
  %11 = alloca ptr, align 8
  %12 = alloca ptr, align 8
  %13 = alloca ptr, align 8
  %14 = alloca ptr, align 8
  %15 = alloca i32, align 4
  %16 = alloca i64, align 8
  store ptr %0, ptr %9, align 8, !tbaa !40
  store ptr %1, ptr %10, align 8, !tbaa !40
  store ptr %2, ptr %11, align 8, !tbaa !10
  store ptr %3, ptr %12, align 8, !tbaa !10
  store ptr %4, ptr %13, align 8, !tbaa !76
  store ptr %5, ptr %14, align 8, !tbaa !76
  store i32 %6, ptr %15, align 4, !tbaa !12
  store i64 %7, ptr %16, align 8, !tbaa !28
  %17 = load ptr, ptr %9, align 8, !tbaa !40
  %18 = load ptr, ptr %10, align 8, !tbaa !40
  %19 = load ptr, ptr %11, align 8, !tbaa !10
  %20 = load ptr, ptr %12, align 8, !tbaa !10
  %21 = load ptr, ptr %13, align 8, !tbaa !76
  %22 = load ptr, ptr %14, align 8, !tbaa !76
  %23 = load i32, ptr %15, align 4, !tbaa !12
  %24 = load i64, ptr %16, align 8, !tbaa !28
  call void @_ZN2cvL10minMaxIdx_IaiEEvPKT_PKhPT0_S7_PmS8_im(ptr noundef %17, ptr noundef %18, ptr noundef %19, ptr noundef %20, ptr noundef %21, ptr noundef %22, i32 noundef %23, i64 noundef %24)
  ret void
}